target datalayout = "e-m:e-p270:32:32-p271:32:32-p272:64:64-i64:64-i128:128-f80:128-n8:16:32:64-S128"
target triple = "x86_64-unknown-linux-gnu"

%class.btGImpactCollisionAlgorithm = type { %class.btActivatingCollisionAlgorithm, ptr, ptr, ptr, ptr, i32, i32, i32, i32 }
%class.btActivatingCollisionAlgorithm = type { %class.btCollisionAlgorithm }
%class.btCollisionAlgorithm = type { ptr, ptr }
%struct.btCollisionObjectWrapper = type { ptr, ptr, ptr, ptr, ptr, i32, i32 }
%class.btManifoldResult = type <{ %"struct.btDiscreteCollisionDetectorInterface::Result", ptr, ptr, ptr, i32, i32, i32, i32, float, [4 x i8] }>
%"struct.btDiscreteCollisionDetectorInterface::Result" = type { ptr }

; Function Attrs: mustprogress nounwind uwtable
define linkonce_odr dso_local void @_ZN16btManifoldResult21setPersistentManifoldEP20btPersistentManifold(ptr noundef nonnull align 8 dereferenceable(52) %this, ptr noundef %manifoldPtr) #1 comdat align 2 {
entry:
  %this.addr = alloca ptr, align 8
  %manifoldPtr.addr = alloca ptr, align 8
  store ptr %this, ptr %this.addr, align 8
  store ptr %manifoldPtr, ptr %manifoldPtr.addr, align 8
  %this1 = load ptr, ptr %this.addr, align 8
  %0 = load ptr, ptr %manifoldPtr.addr, align 8
  %m_manifoldPtr = getelementptr inbounds %class.btManifoldResult, ptr %this1, i32 0, i32 1
  store ptr %0, ptr %m_manifoldPtr, align 8
  ret void
}

; Function Attrs: mustprogress uwtable
define linkonce_odr dso_local noundef ptr @_ZN27btGImpactCollisionAlgorithm18newContactManifoldEPK17btCollisionObjectS2_(ptr noundef nonnull align 8 dereferenceable(64) %this, ptr noundef %body0, ptr noundef %body1) #2 comdat align 2 {
entry:
  %this.addr = alloca ptr, align 8
  %body0.addr = alloca ptr, align 8
  %body1.addr = alloca ptr, align 8
  store ptr %this, ptr %this.addr, align 8
  store ptr %body0, ptr %body0.addr, align 8
  store ptr %body1, ptr %body1.addr, align 8
  %this1 = load ptr, ptr %this.addr, align 8
  %m_dispatcher = getelementptr inbounds %class.btCollisionAlgorithm, ptr %this1, i32 0, i32 1
  %0 = load ptr, ptr %m_dispatcher, align 8
  %1 = load ptr, ptr %body0.addr, align 8
  %2 = load ptr, ptr %body1.addr, align 8
  %vtable = load ptr, ptr %0, align 8
  %vfn = getelementptr inbounds ptr, ptr %vtable, i64 3
  %3 = load ptr, ptr %vfn, align 8
  %call = call noundef ptr %3(ptr noundef nonnull align 8 dereferenceable(8) %0, ptr noundef %1, ptr noundef %2)
  %m_manifoldPtr = getelementptr inbounds %class.btGImpactCollisionAlgorithm, ptr %this1, i32 0, i32 2
  store ptr %call, ptr %m_manifoldPtr, align 8
  %m_manifoldPtr2 = getelementptr inbounds %class.btGImpactCollisionAlgorithm, ptr %this1, i32 0, i32 2
  %4 = load ptr, ptr %m_manifoldPtr2, align 8
  ret ptr %4
}

; Function Attrs: mustprogress nounwind uwtable
define linkonce_odr dso_local noundef ptr @_ZNK24btCollisionObjectWrapper18getCollisionObjectEv(ptr noundef nonnull align 8 dereferenceable(48) %this) #1 comdat align 2 {
entry:
  %this.addr = alloca ptr, align 8
  store ptr %this, ptr %this.addr, align 8
  %this1 = load ptr, ptr %this.addr, align 8
  %m_collisionObject = getelementptr inbounds %struct.btCollisionObjectWrapper, ptr %this1, i32 0, i32 2
  %0 = load ptr, ptr %m_collisionObject, align 8
  ret ptr %0
}

; Function Attrs: mustprogress nounwind uwtable
define linkonce_odr dso_local noundef ptr @_ZN27btGImpactCollisionAlgorithm15getLastManifoldEv(ptr noundef nonnull align 8 dereferenceable(64) %this) #1 comdat align 2 {
entry:
  %this.addr = alloca ptr, align 8
  store ptr %this, ptr %this.addr, align 8
  %this1 = load ptr, ptr %this.addr, align 8
  %m_manifoldPtr = getelementptr inbounds %class.btGImpactCollisionAlgorithm, ptr %this1, i32 0, i32 2
  %0 = load ptr, ptr %m_manifoldPtr, align 8
  ret ptr %0
}

; Function Attrs: mustprogress uwtable
define linkonce_odr dso_local void @_ZN27btGImpactCollisionAlgorithm13checkManifoldEPK24btCollisionObjectWrapperS2_(ptr noundef nonnull align 8 dereferenceable(64) %this, ptr noundef %body0Wrap, ptr noundef %body1Wrap) #2 comdat align 2 {
entry:
  %this.addr = alloca ptr, align 8
  %body0Wrap.addr = alloca ptr, align 8
  %body1Wrap.addr = alloca ptr, align 8
  store ptr %this, ptr %this.addr, align 8
  store ptr %body0Wrap, ptr %body0Wrap.addr, align 8
  store ptr %body1Wrap, ptr %body1Wrap.addr, align 8
  %this1 = load ptr, ptr %this.addr, align 8
  %call = call noundef ptr @_ZN27btGImpactCollisionAlgorithm15getLastManifoldEv(ptr noundef nonnull align 8 dereferenceable(64) %this1)
  %cmp = icmp eq ptr %call, null
  br i1 %cmp, label %if.then, label %if.end

if.then:                                          ; preds = %entry
  %0 = load ptr, ptr %body0Wrap.addr, align 8
  %call2 = call noundef ptr @_ZNK24btCollisionObjectWrapper18getCollisionObjectEv(ptr noundef nonnull align 8 dereferenceable(48) %0)
  %1 = load ptr, ptr %body1Wrap.addr, align 8
  %call3 = call noundef ptr @_ZNK24btCollisionObjectWrapper18getCollisionObjectEv(ptr noundef nonnull align 8 dereferenceable(48) %1)
  %call4 = call noundef ptr @_ZN27btGImpactCollisionAlgorithm18newContactManifoldEPK17btCollisionObjectS2_(ptr noundef nonnull align 8 dereferenceable(64) %this1, ptr noundef %call2, ptr noundef %call3)
  br label %if.end

if.end:                                           ; preds = %if.then, %entry
  %m_resultOut = getelementptr inbounds %class.btGImpactCollisionAlgorithm, ptr %this1, i32 0, i32 3
  %2 = load ptr, ptr %m_resultOut, align 8
  %call5 = call noundef ptr @_ZN27btGImpactCollisionAlgorithm15getLastManifoldEv(ptr noundef nonnull align 8 dereferenceable(64) %this1)
  call void @_ZN16btManifoldResult21setPersistentManifoldEP20btPersistentManifold(ptr noundef nonnull align 8 dereferenceable(52) %2, ptr noundef %call5)
  ret void
}

; Function Attrs: mustprogress uwtable
define linkonce_odr dso_local noundef ptr @_ZN27btGImpactCollisionAlgorithm12newAlgorithmEPK24btCollisionObjectWrapperS2_(ptr noundef nonnull align 8 dereferenceable(64) %this, ptr noundef %body0Wrap, ptr noundef %body1Wrap) #2 comdat align 2 {
entry:
  %this.addr = alloca ptr, align 8
  %body0Wrap.addr = alloca ptr, align 8
  %body1Wrap.addr = alloca ptr, align 8
  %convex_algorithm = alloca ptr, align 8
  store ptr %this, ptr %this.addr, align 8
  store ptr %body0Wrap, ptr %body0Wrap.addr, align 8
  store ptr %body1Wrap, ptr %body1Wrap.addr, align 8
  %this1 = load ptr, ptr %this.addr, align 8
  %0 = load ptr, ptr %body0Wrap.addr, align 8
  %1 = load ptr, ptr %body1Wrap.addr, align 8
  call void @_ZN27btGImpactCollisionAlgorithm13checkManifoldEPK24btCollisionObjectWrapperS2_(ptr noundef nonnull align 8 dereferenceable(64) %this1, ptr noundef %0, ptr noundef %1)
  %m_dispatcher = getelementptr inbounds %class.btCollisionAlgorithm, ptr %this1, i32 0, i32 1
  %2 = load ptr, ptr %m_dispatcher, align 8
  %3 = load ptr, ptr %body0Wrap.addr, align 8
  %4 = load ptr, ptr %body1Wrap.addr, align 8
  %call = call noundef ptr @_ZN27btGImpactCollisionAlgorithm15getLastManifoldEv(ptr noundef nonnull align 8 dereferenceable(64) %this1)
  %vtable = load ptr, ptr %2, align 8
  %vfn = getelementptr inbounds ptr, ptr %vtable, i64 2
  %5 = load ptr, ptr %vfn, align 8
  %call2 = call noundef ptr %5(ptr noundef nonnull align 8 dereferenceable(8) %2, ptr noundef %3, ptr noundef %4, ptr noundef %call, i32 noundef 1)
  store ptr %call2, ptr %convex_algorithm, align 8
  %6 = load ptr, ptr %convex_algorithm, align 8
  ret ptr %6
}

; Function Attrs: mustprogress uwtable
define dso_local void @_ZN27btGImpactCollisionAlgorithm24shape_vs_shape_collisionEPK24btCollisionObjectWrapperS2_PK16btCollisionShapeS5_(ptr noundef nonnull align 8 dereferenceable(64) %this, ptr noundef %body0Wrap, ptr noundef %body1Wrap, ptr noundef %shape0, ptr noundef %shape1) #2 align 2 {
entry:
  %this.addr = alloca ptr, align 8
  %body0Wrap.addr = alloca ptr, align 8
  %body1Wrap.addr = alloca ptr, align 8
  %shape0.addr = alloca ptr, align 8
  %shape1.addr = alloca ptr, align 8
  %algor = alloca ptr, align 8
  store ptr %this, ptr %this.addr, align 8
  store ptr %body0Wrap, ptr %body0Wrap.addr, align 8
  store ptr %body1Wrap, ptr %body1Wrap.addr, align 8
  store ptr %shape0, ptr %shape0.addr, align 8
  store ptr %shape1, ptr %shape1.addr, align 8
  %this1 = load ptr, ptr %this.addr, align 8
  %0 = load ptr, ptr %body0Wrap.addr, align 8
  %1 = load ptr, ptr %body1Wrap.addr, align 8
  %call = call noundef ptr @_ZN27btGImpactCollisionAlgorithm12newAlgorithmEPK24btCollisionObjectWrapperS2_(ptr noundef nonnull align 8 dereferenceable(64) %this1, ptr noundef %0, ptr noundef %1)
  store ptr %call, ptr %algor, align 8
  %m_resultOut = getelementptr inbounds %class.btGImpactCollisionAlgorithm, ptr %this1, i32 0, i32 3
  %2 = load ptr, ptr %m_resultOut, align 8
  %m_part0 = getelementptr inbounds %class.btGImpactCollisionAlgorithm, ptr %this1, i32 0, i32 6
  %3 = load i32, ptr %m_part0, align 4
  %m_triface0 = getelementptr inbounds %class.btGImpactCollisionAlgorithm, ptr %this1, i32 0, i32 5
  %4 = load i32, ptr %m_triface0, align 8
  %vtable = load ptr, ptr %2, align 8
  %vfn = getelementptr inbounds ptr, ptr %vtable, i64 2
  %5 = load ptr, ptr %vfn, align 8
  call void %5(ptr noundef nonnull align 8 dereferenceable(52) %2, i32 noundef %3, i32 noundef %4)
  %m_resultOut2 = getelementptr inbounds %class.btGImpactCollisionAlgorithm, ptr %this1, i32 0, i32 3
  %6 = load ptr, ptr %m_resultOut2, align 8
  %m_part1 = getelementptr inbounds %class.btGImpactCollisionAlgorithm, ptr %this1, i32 0, i32 8
  %7 = load i32, ptr %m_part1, align 4
  %m_triface1 = getelementptr inbounds %class.btGImpactCollisionAlgorithm, ptr %this1, i32 0, i32 7
  %8 = load i32, ptr %m_triface1, align 8
  %vtable3 = load ptr, ptr %6, align 8
  %vfn4 = getelementptr inbounds ptr, ptr %vtable3, i64 3
  %9 = load ptr, ptr %vfn4, align 8
  call void %9(ptr noundef nonnull align 8 dereferenceable(52) %6, i32 noundef %7, i32 noundef %8)
  %10 = load ptr, ptr %algor, align 8
  %11 = load ptr, ptr %body0Wrap.addr, align 8
  %12 = load ptr, ptr %body1Wrap.addr, align 8
  %m_dispatchInfo = getelementptr inbounds %class.btGImpactCollisionAlgorithm, ptr %this1, i32 0, i32 4
  %13 = load ptr, ptr %m_dispatchInfo, align 8
  %m_resultOut5 = getelementptr inbounds %class.btGImpactCollisionAlgorithm, ptr %this1, i32 0, i32 3
  %14 = load ptr, ptr %m_resultOut5, align 8
  %vtable6 = load ptr, ptr %10, align 8
  %vfn7 = getelementptr inbounds ptr, ptr %vtable6, i64 2
  %15 = load ptr, ptr %vfn7, align 8
  call void %15(ptr noundef nonnull align 8 dereferenceable(16) %10, ptr noundef %11, ptr noundef %12, ptr noundef nonnull align 8 dereferenceable(49) %13, ptr noundef %14)
  %16 = load ptr, ptr %algor, align 8
  %vtable8 = load ptr, ptr %16, align 8
  %vfn9 = getelementptr inbounds ptr, ptr %vtable8, i64 0
  %17 = load ptr, ptr %vfn9, align 8
  call void %17(ptr noundef nonnull align 8 dereferenceable(16) %16) #9
  %m_dispatcher = getelementptr inbounds %class.btCollisionAlgorithm, ptr %this1, i32 0, i32 1
  %18 = load ptr, ptr %m_dispatcher, align 8
  %19 = load ptr, ptr %algor, align 8
  %vtable10 = load ptr, ptr %18, align 8
  %vfn11 = getelementptr inbounds ptr, ptr %vtable10, i64 15
  %20 = load ptr, ptr %vfn11, align 8
  call void %20(ptr noundef nonnull align 8 dereferenceable(8) %18, ptr noundef %19)
  ret void
}