; Function Attrs: mustprogress uwtable
define dso_local void @_ZN27btGImpactCollisionAlgorithm24shape_vs_shape_collisionEPK24btCollisionObjectWrapperS2_PK16btCollisionShapeS5_(ptr nocapture noundef nonnull align 8 dereferenceable(64) %this, ptr noundef %body0Wrap, ptr noundef %body1Wrap, ptr nocapture readnone %shape0, ptr nocapture readnone %shape1) local_unnamed_addr #0 align 2 {
entry:
  %m_manifoldPtr.i.i.i = getelementptr inbounds i8, ptr %this, i64 24
  %0 = load ptr, ptr %m_manifoldPtr.i.i.i, align 8
  %cmp.i.i = icmp eq ptr %0, null
  br i1 %cmp.i.i, label %if.then.i.i, label %_ZN27btGImpactCollisionAlgorithm12newAlgorithmEPK24btCollisionObjectWrapperS2_.exit

if.then.i.i:                                      ; preds = %entry
  %m_collisionObject.i.i.i = getelementptr inbounds i8, ptr %body0Wrap, i64 16
  %1 = load ptr, ptr %m_collisionObject.i.i.i, align 8
  %m_collisionObject.i1.i.i = getelementptr inbounds i8, ptr %body1Wrap, i64 16
  %2 = load ptr, ptr %m_collisionObject.i1.i.i, align 8
  %m_dispatcher.i.i.i = getelementptr inbounds i8, ptr %this, i64 8
  %3 = load ptr, ptr %m_dispatcher.i.i.i, align 8
  %vtable.i.i.i = load ptr, ptr %3, align 8
  %vfn.i.i.i = getelementptr inbounds i8, ptr %vtable.i.i.i, i64 24
  %4 = load ptr, ptr %vfn.i.i.i, align 8
  %call.i.i.i = tail call noundef ptr %4(ptr noundef nonnull align 8 dereferenceable(8) %3, ptr noundef %1, ptr noundef %2)
  store ptr %call.i.i.i, ptr %m_manifoldPtr.i.i.i, align 8
  br label %_ZN27btGImpactCollisionAlgorithm12newAlgorithmEPK24btCollisionObjectWrapperS2_.exit

_ZN27btGImpactCollisionAlgorithm12newAlgorithmEPK24btCollisionObjectWrapperS2_.exit: ; preds = %entry, %if.then.i.i
  %5 = phi ptr [ %call.i.i.i, %if.then.i.i ], [ %0, %entry ]
  %m_resultOut.i.i = getelementptr inbounds i8, ptr %this, i64 32
  %6 = load ptr, ptr %m_resultOut.i.i, align 8
  %m_manifoldPtr.i4.i.i = getelementptr inbounds i8, ptr %6, i64 8
  store ptr %5, ptr %m_manifoldPtr.i4.i.i, align 8
  %m_dispatcher.i = getelementptr inbounds i8, ptr %this, i64 8
  %7 = load ptr, ptr %m_dispatcher.i, align 8
  %8 = load ptr, ptr %m_manifoldPtr.i.i.i, align 8
  %vtable.i = load ptr, ptr %7, align 8
  %vfn.i = getelementptr inbounds i8, ptr %vtable.i, i64 16
  %9 = load ptr, ptr %vfn.i, align 8
  %call2.i = tail call noundef ptr %9(ptr noundef nonnull align 8 dereferenceable(8) %7, ptr noundef %body0Wrap, ptr noundef %body1Wrap, ptr noundef %8, i32 noundef 1)
  %10 = load ptr, ptr %m_resultOut.i.i, align 8
  %m_part0 = getelementptr inbounds i8, ptr %this, i64 52
  %11 = load i32, ptr %m_part0, align 4
  %m_triface0 = getelementptr inbounds i8, ptr %this, i64 48
  %12 = load i32, ptr %m_triface0, align 8
  %vtable = load ptr, ptr %10, align 8
  %vfn = getelementptr inbounds i8, ptr %vtable, i64 16
  %13 = load ptr, ptr %vfn, align 8
  tail call void %13(ptr noundef nonnull align 8 dereferenceable(52) %10, i32 noundef %11, i32 noundef %12)
  %14 = load ptr, ptr %m_resultOut.i.i, align 8
  %m_part1 = getelementptr inbounds i8, ptr %this, i64 60
  %15 = load i32, ptr %m_part1, align 4
  %m_triface1 = getelementptr inbounds i8, ptr %this, i64 56
  %16 = load i32, ptr %m_triface1, align 8
  %vtable3 = load ptr, ptr %14, align 8
  %vfn4 = getelementptr inbounds i8, ptr %vtable3, i64 24
  %17 = load ptr, ptr %vfn4, align 8
  tail call void %17(ptr noundef nonnull align 8 dereferenceable(52) %14, i32 noundef %15, i32 noundef %16)
  %m_dispatchInfo = getelementptr inbounds i8, ptr %this, i64 40
  %18 = load ptr, ptr %m_dispatchInfo, align 8
  %19 = load ptr, ptr %m_resultOut.i.i, align 8
  %vtable6 = load ptr, ptr %call2.i, align 8
  %vfn7 = getelementptr inbounds i8, ptr %vtable6, i64 16
  %20 = load ptr, ptr %vfn7, align 8
  tail call void %20(ptr noundef nonnull align 8 dereferenceable(16) %call2.i, ptr noundef %body0Wrap, ptr noundef %body1Wrap, ptr noundef nonnull align 8 dereferenceable(49) %18, ptr noundef %19)
  %vtable8 = load ptr, ptr %call2.i, align 8
  %21 = load ptr, ptr %vtable8, align 8
  tail call void %21(ptr noundef nonnull align 8 dereferenceable(16) %call2.i) #14
  %22 = load ptr, ptr %m_dispatcher.i, align 8
  %vtable10 = load ptr, ptr %22, align 8
  %vfn11 = getelementptr inbounds i8, ptr %vtable10, i64 120
  %23 = load ptr, ptr %vfn11, align 8
  tail call void %23(ptr noundef nonnull align 8 dereferenceable(8) %22, ptr noundef nonnull %call2.i)
  ret void
}